target datalayout = "e-m:e-p270:32:32-p271:32:32-p272:64:64-i64:64-i128:128-f80:128-n8:16:32:64-S128"
target triple = "x86_64-pc-linux-gnu"

%class.anon.234 = type { ptr, ptr }
%"struct.vcpkg::WorkCallbackContext" = type { %class.anon.234, i64, %"struct.std::atomic.235" }
%"struct.std::atomic.235" = type { %"struct.std::__atomic_base.236" }
%"struct.std::__atomic_base.236" = type { i64 }
%class.anon.242 = type { ptr }
%"struct.std::thread::_State_impl" = type { %"struct.std::thread::_State", %"struct.std::thread::_Invoker" }
%"struct.std::thread::_State" = type { ptr }
%"struct.std::thread::_Invoker" = type { %"class.std::tuple.253" }
%"class.std::tuple.253" = type { %"struct.std::_Tuple_impl.254" }
%"struct.std::_Tuple_impl.254" = type { %"struct.std::_Head_base.255" }
%"struct.std::_Head_base.255" = type { %class.anon.242 }

; Function Attrs: mustprogress uwtable
define internal void @"_ZN5vcpkg19WorkCallbackContextIZNS_17parallel_for_eachIRSt6vectorINS_4PathESaIS3_EEZNS_L26check_no_absolute_paths_inERKNS_18ReadOnlyFilesystemERKS3_NS_4SpanIS3_EERNS_11MessageSinkEE3$_1EEvOT_T0_EUlmE_E3runEv"(ptr noundef nonnull align 8 dereferenceable(32) %0) #0 align 2 {
  %2 = alloca ptr, align 8
  %3 = alloca i64, align 8
  %4 = alloca i32, align 4
  %5 = alloca i64, align 8
  %6 = alloca i64, align 8
  %7 = alloca ptr, align 8
  %8 = alloca i64, align 8
  store ptr %0, ptr %7, align 8
  %9 = load ptr, ptr %7, align 8
  br label %10

10:                                               ; preds = %37, %1
  %11 = getelementptr inbounds %"struct.vcpkg::WorkCallbackContext", ptr %9, i32 0, i32 2
  store ptr %11, ptr %2, align 8
  store i64 1, ptr %3, align 8
  store i32 0, ptr %4, align 4
  %12 = load ptr, ptr %2, align 8
  %13 = load i32, ptr %4, align 4
  %14 = load i64, ptr %3, align 8
  store i64 %14, ptr %5, align 8
  switch i32 %13, label %15 [
    i32 1, label %18
    i32 2, label %18
    i32 3, label %21
    i32 4, label %24
    i32 5, label %27
  ]

15:                                               ; preds = %10
  %16 = load i64, ptr %5, align 8
  %17 = atomicrmw add ptr %12, i64 %16 monotonic, align 8
  store i64 %17, ptr %6, align 8
  br label %30

18:                                               ; preds = %10, %10
  %19 = load i64, ptr %5, align 8
  %20 = atomicrmw add ptr %12, i64 %19 acquire, align 8
  store i64 %20, ptr %6, align 8
  br label %30

21:                                               ; preds = %10
  %22 = load i64, ptr %5, align 8
  %23 = atomicrmw add ptr %12, i64 %22 release, align 8
  store i64 %23, ptr %6, align 8
  br label %30

24:                                               ; preds = %10
  %25 = load i64, ptr %5, align 8
  %26 = atomicrmw add ptr %12, i64 %25 acq_rel, align 8
  store i64 %26, ptr %6, align 8
  br label %30

27:                                               ; preds = %10
  %28 = load i64, ptr %5, align 8
  %29 = atomicrmw add ptr %12, i64 %28 seq_cst, align 8
  store i64 %29, ptr %6, align 8
  br label %30

30:                                               ; preds = %27, %24, %21, %18, %15
  %31 = load i64, ptr %6, align 8
  store i64 %31, ptr %8, align 8
  %32 = load i64, ptr %8, align 8
  %33 = getelementptr inbounds %"struct.vcpkg::WorkCallbackContext", ptr %9, i32 0, i32 1
  %34 = load i64, ptr %33, align 8
  %35 = icmp uge i64 %32, %34
  br i1 %35, label %36, label %37

36:                                               ; preds = %30
  ret void

37:                                               ; preds = %30
  %38 = getelementptr inbounds %"struct.vcpkg::WorkCallbackContext", ptr %9, i32 0, i32 0
  %39 = load i64, ptr %8, align 8
  call void @"_ZZN5vcpkg17parallel_for_eachIRSt6vectorINS_4PathESaIS2_EEZNS_L26check_no_absolute_paths_inERKNS_18ReadOnlyFilesystemERKS2_NS_4SpanIS2_EERNS_11MessageSinkEE3$_1EEvOT_T0_ENKUlmE_clEm"(ptr noundef nonnull align 8 dereferenceable(16) %38, i64 noundef %39)
  br label %10, !llvm.loop !104
}

; Function Attrs: mustprogress nounwind uwtable
define internal noundef nonnull align 8 dereferenceable(8) ptr @"_ZNSt10_Head_baseILm0EZN5vcpkg19execute_in_parallelIZNS0_17parallel_for_eachIRSt6vectorINS0_4PathESaIS4_EEZNS0_L26check_no_absolute_paths_inERKNS0_18ReadOnlyFilesystemERKS4_NS0_4SpanIS4_EERNS0_11MessageSinkEE3$_1EEvOT_T0_EUlmE_EEvmSI_EUlvE_Lb0EE7_M_headERSN_"(ptr noundef nonnull align 8 dereferenceable(8) %0) #3 align 2 {
  %2 = alloca ptr, align 8
  store ptr %0, ptr %2, align 8
  %3 = load ptr, ptr %2, align 8
  %4 = getelementptr inbounds %"struct.std::_Head_base.255", ptr %3, i32 0, i32 0
  ret ptr %4
}

; Function Attrs: mustprogress uwtable
define internal void @"_ZZN5vcpkg19execute_in_parallelIZNS_17parallel_for_eachIRSt6vectorINS_4PathESaIS3_EEZNS_L26check_no_absolute_paths_inERKNS_18ReadOnlyFilesystemERKS3_NS_4SpanIS3_EERNS_11MessageSinkEE3$_1EEvOT_T0_EUlmE_EEvmSH_ENKUlvE_clEv"(ptr noundef nonnull align 8 dereferenceable(8) %0) #0 align 2 {
  %2 = alloca ptr, align 8
  store ptr %0, ptr %2, align 8
  %3 = load ptr, ptr %2, align 8
  %4 = getelementptr inbounds %class.anon.242, ptr %3, i32 0, i32 0
  %5 = load ptr, ptr %4, align 8
  call void @"_ZN5vcpkg19WorkCallbackContextIZNS_17parallel_for_eachIRSt6vectorINS_4PathESaIS3_EEZNS_L26check_no_absolute_paths_inERKNS_18ReadOnlyFilesystemERKS3_NS_4SpanIS3_EERNS_11MessageSinkEE3$_1EEvOT_T0_EUlmE_E3runEv"(ptr noundef nonnull align 8 dereferenceable(32) %5)
  ret void
}

; Function Attrs: mustprogress nounwind uwtable
define internal noundef nonnull align 8 dereferenceable(8) ptr @"_ZNSt11_Tuple_implILm0EJZN5vcpkg19execute_in_parallelIZNS0_17parallel_for_eachIRSt6vectorINS0_4PathESaIS4_EEZNS0_L26check_no_absolute_paths_inERKNS0_18ReadOnlyFilesystemERKS4_NS0_4SpanIS4_EERNS0_11MessageSinkEE3$_1EEvOT_T0_EUlmE_EEvmSI_EUlvE_EE7_M_headERSN_"(ptr noundef nonnull align 8 dereferenceable(8) %0) #3 align 2 {
  %2 = alloca ptr, align 8
  store ptr %0, ptr %2, align 8
  %3 = load ptr, ptr %2, align 8
  %4 = call noundef nonnull align 8 dereferenceable(8) ptr @"_ZNSt10_Head_baseILm0EZN5vcpkg19execute_in_parallelIZNS0_17parallel_for_eachIRSt6vectorINS0_4PathESaIS4_EEZNS0_L26check_no_absolute_paths_inERKNS0_18ReadOnlyFilesystemERKS4_NS0_4SpanIS4_EERNS0_11MessageSinkEE3$_1EEvOT_T0_EUlmE_EEvmSI_EUlvE_Lb0EE7_M_headERSN_"(ptr noundef nonnull align 8 dereferenceable(8) %3) #19
  ret ptr %4
}

; Function Attrs: mustprogress uwtable
define internal void @"_ZSt13__invoke_implIvZN5vcpkg19execute_in_parallelIZNS0_17parallel_for_eachIRSt6vectorINS0_4PathESaIS4_EEZNS0_L26check_no_absolute_paths_inERKNS0_18ReadOnlyFilesystemERKS4_NS0_4SpanIS4_EERNS0_11MessageSinkEE3$_1EEvOT_T0_EUlmE_EEvmSI_EUlvE_JEESI_St14__invoke_otherOSK_DpOT1_"(ptr noundef nonnull align 8 dereferenceable(8) %0) #0 {
  %2 = alloca ptr, align 8
  store ptr %0, ptr %2, align 8
  %3 = load ptr, ptr %2, align 8
  call void @"_ZZN5vcpkg19execute_in_parallelIZNS_17parallel_for_eachIRSt6vectorINS_4PathESaIS3_EEZNS_L26check_no_absolute_paths_inERKNS_18ReadOnlyFilesystemERKS3_NS_4SpanIS3_EERNS_11MessageSinkEE3$_1EEvOT_T0_EUlmE_EEvmSH_ENKUlvE_clEv"(ptr noundef nonnull align 8 dereferenceable(8) %3)
  ret void
}

; Function Attrs: mustprogress nounwind uwtable
define internal noundef nonnull align 8 dereferenceable(8) ptr @"_ZSt12__get_helperILm0EZN5vcpkg19execute_in_parallelIZNS0_17parallel_for_eachIRSt6vectorINS0_4PathESaIS4_EEZNS0_L26check_no_absolute_paths_inERKNS0_18ReadOnlyFilesystemERKS4_NS0_4SpanIS4_EERNS0_11MessageSinkEE3$_1EEvOT_T0_EUlmE_EEvmSI_EUlvE_JEERSK_RSt11_Tuple_implIXT_EJSK_DpT1_EE"(ptr noundef nonnull align 8 dereferenceable(8) %0) #3 {
  %2 = alloca ptr, align 8
  store ptr %0, ptr %2, align 8
  %3 = load ptr, ptr %2, align 8
  %4 = call noundef nonnull align 8 dereferenceable(8) ptr @"_ZNSt11_Tuple_implILm0EJZN5vcpkg19execute_in_parallelIZNS0_17parallel_for_eachIRSt6vectorINS0_4PathESaIS4_EEZNS0_L26check_no_absolute_paths_inERKNS0_18ReadOnlyFilesystemERKS4_NS0_4SpanIS4_EERNS0_11MessageSinkEE3$_1EEvOT_T0_EUlmE_EEvmSI_EUlvE_EE7_M_headERSN_"(ptr noundef nonnull align 8 dereferenceable(8) %3) #19
  ret ptr %4
}

; Function Attrs: mustprogress uwtable
define internal void @"_ZSt8__invokeIZN5vcpkg19execute_in_parallelIZNS0_17parallel_for_eachIRSt6vectorINS0_4PathESaIS4_EEZNS0_L26check_no_absolute_paths_inERKNS0_18ReadOnlyFilesystemERKS4_NS0_4SpanIS4_EERNS0_11MessageSinkEE3$_1EEvOT_T0_EUlmE_EEvmSI_EUlvE_JEENSt15__invoke_resultISI_JDpT0_EE4typeESJ_DpOSO_"(ptr noundef nonnull align 8 dereferenceable(8) %0) #0 {
  %2 = alloca ptr, align 8
  store ptr %0, ptr %2, align 8
  %3 = load ptr, ptr %2, align 8
  call void @"_ZSt13__invoke_implIvZN5vcpkg19execute_in_parallelIZNS0_17parallel_for_eachIRSt6vectorINS0_4PathESaIS4_EEZNS0_L26check_no_absolute_paths_inERKNS0_18ReadOnlyFilesystemERKS4_NS0_4SpanIS4_EERNS0_11MessageSinkEE3$_1EEvOT_T0_EUlmE_EEvmSI_EUlvE_JEESI_St14__invoke_otherOSK_DpOT1_"(ptr noundef nonnull align 8 dereferenceable(8) %3)
  ret void
}

; Function Attrs: mustprogress nounwind uwtable
define internal noundef nonnull align 8 dereferenceable(8) ptr @"_ZSt3getILm0EJZN5vcpkg19execute_in_parallelIZNS0_17parallel_for_eachIRSt6vectorINS0_4PathESaIS4_EEZNS0_L26check_no_absolute_paths_inERKNS0_18ReadOnlyFilesystemERKS4_NS0_4SpanIS4_EERNS0_11MessageSinkEE3$_1EEvOT_T0_EUlmE_EEvmSI_EUlvE_EEONSt13tuple_elementIXT_ESt5tupleIJDpT0_EEE4typeEOSR_"(ptr noundef nonnull align 8 dereferenceable(8) %0) #3 {
  %2 = alloca ptr, align 8
  store ptr %0, ptr %2, align 8
  %3 = load ptr, ptr %2, align 8
  %4 = call noundef nonnull align 8 dereferenceable(8) ptr @"_ZSt12__get_helperILm0EZN5vcpkg19execute_in_parallelIZNS0_17parallel_for_eachIRSt6vectorINS0_4PathESaIS4_EEZNS0_L26check_no_absolute_paths_inERKNS0_18ReadOnlyFilesystemERKS4_NS0_4SpanIS4_EERNS0_11MessageSinkEE3$_1EEvOT_T0_EUlmE_EEvmSI_EUlvE_JEERSK_RSt11_Tuple_implIXT_EJSK_DpT1_EE"(ptr noundef nonnull align 8 dereferenceable(8) %3) #19
  ret ptr %4
}

; Function Attrs: mustprogress uwtable
define internal void @"_ZNSt6thread8_InvokerISt5tupleIJZN5vcpkg19execute_in_parallelIZNS2_17parallel_for_eachIRSt6vectorINS2_4PathESaIS6_EEZNS2_L26check_no_absolute_paths_inERKNS2_18ReadOnlyFilesystemERKS6_NS2_4SpanIS6_EERNS2_11MessageSinkEE3$_1EEvOT_T0_EUlmE_EEvmSK_EUlvE_EEE9_M_invokeIJLm0EEEEvSt12_Index_tupleIJXspT_EEE"(ptr noundef nonnull align 8 dereferenceable(8) %0) #0 align 2 {
  %2 = alloca ptr, align 8
  store ptr %0, ptr %2, align 8
  %3 = load ptr, ptr %2, align 8
  %4 = getelementptr inbounds %"struct.std::thread::_Invoker", ptr %3, i32 0, i32 0
  %5 = call noundef nonnull align 8 dereferenceable(8) ptr @"_ZSt3getILm0EJZN5vcpkg19execute_in_parallelIZNS0_17parallel_for_eachIRSt6vectorINS0_4PathESaIS4_EEZNS0_L26check_no_absolute_paths_inERKNS0_18ReadOnlyFilesystemERKS4_NS0_4SpanIS4_EERNS0_11MessageSinkEE3$_1EEvOT_T0_EUlmE_EEvmSI_EUlvE_EEONSt13tuple_elementIXT_ESt5tupleIJDpT0_EEE4typeEOSR_"(ptr noundef nonnull align 8 dereferenceable(8) %4) #19
  call void @"_ZSt8__invokeIZN5vcpkg19execute_in_parallelIZNS0_17parallel_for_eachIRSt6vectorINS0_4PathESaIS4_EEZNS0_L26check_no_absolute_paths_inERKNS0_18ReadOnlyFilesystemERKS4_NS0_4SpanIS4_EERNS0_11MessageSinkEE3$_1EEvOT_T0_EUlmE_EEvmSI_EUlvE_JEENSt15__invoke_resultISI_JDpT0_EE4typeESJ_DpOSO_"(ptr noundef nonnull align 8 dereferenceable(8) %5)
  ret void
}

; Function Attrs: mustprogress uwtable
define internal void @"_ZNSt6thread8_InvokerISt5tupleIJZN5vcpkg19execute_in_parallelIZNS2_17parallel_for_eachIRSt6vectorINS2_4PathESaIS6_EEZNS2_L26check_no_absolute_paths_inERKNS2_18ReadOnlyFilesystemERKS6_NS2_4SpanIS6_EERNS2_11MessageSinkEE3$_1EEvOT_T0_EUlmE_EEvmSK_EUlvE_EEEclEv"(ptr noundef nonnull align 8 dereferenceable(8) %0) #0 align 2 {
  %2 = alloca ptr, align 8
  store ptr %0, ptr %2, align 8
  %3 = load ptr, ptr %2, align 8
  call void @"_ZNSt6thread8_InvokerISt5tupleIJZN5vcpkg19execute_in_parallelIZNS2_17parallel_for_eachIRSt6vectorINS2_4PathESaIS6_EEZNS2_L26check_no_absolute_paths_inERKNS2_18ReadOnlyFilesystemERKS6_NS2_4SpanIS6_EERNS2_11MessageSinkEE3$_1EEvOT_T0_EUlmE_EEvmSK_EUlvE_EEE9_M_invokeIJLm0EEEEvSt12_Index_tupleIJXspT_EEE"(ptr noundef nonnull align 8 dereferenceable(8) %3)
  ret void
}

; Function Attrs: mustprogress uwtable
define internal void @"_ZNSt6thread11_State_implINS_8_InvokerISt5tupleIJZN5vcpkg19execute_in_parallelIZNS3_17parallel_for_eachIRSt6vectorINS3_4PathESaIS7_EEZNS3_L26check_no_absolute_paths_inERKNS3_18ReadOnlyFilesystemERKS7_NS3_4SpanIS7_EERNS3_11MessageSinkEE3$_1EEvOT_T0_EUlmE_EEvmSL_EUlvE_EEEEE6_M_runEv"(ptr noundef nonnull align 8 dereferenceable(16) %0) unnamed_addr #0 align 2 {
  %2 = alloca ptr, align 8
  store ptr %0, ptr %2, align 8
  %3 = load ptr, ptr %2, align 8
  %4 = getelementptr inbounds %"struct.std::thread::_State_impl", ptr %3, i32 0, i32 1
  call void @"_ZNSt6thread8_InvokerISt5tupleIJZN5vcpkg19execute_in_parallelIZNS2_17parallel_for_eachIRSt6vectorINS2_4PathESaIS6_EEZNS2_L26check_no_absolute_paths_inERKNS2_18ReadOnlyFilesystemERKS6_NS2_4SpanIS6_EERNS2_11MessageSinkEE3$_1EEvOT_T0_EUlmE_EEvmSK_EUlvE_EEEclEv"(ptr noundef nonnull align 8 dereferenceable(8) %4)
  ret void
}