; Function Attrs: mustprogress uwtable
define internal void @"_ZNSt6thread11_State_implINS_8_InvokerISt5tupleIJZN5vcpkg19execute_in_parallelIZNS3_17parallel_for_eachIRSt6vectorINS3_4PathESaIS7_EEZNS3_L26check_no_absolute_paths_inERKNS3_18ReadOnlyFilesystemERKS7_NS3_4SpanIS7_EERNS3_11MessageSinkEE3$_1EEvOT_T0_EUlmE_EEvmSL_EUlvE_EEEEE6_M_runEv"(ptr nocapture noundef nonnull readonly align 8 dereferenceable(16) %0) unnamed_addr #0 align 2 {
  %2 = getelementptr inbounds i8, ptr %0, i64 8
  %.val = load ptr, ptr %2, align 8
  %3 = getelementptr inbounds i8, ptr %.val, i64 24
  %4 = getelementptr inbounds i8, ptr %.val, i64 16
  %5 = atomicrmw add ptr %3, i64 1 monotonic, align 8
  %6 = load i64, ptr %4, align 8
  %.not12.i.i.i.i.i.i = icmp ult i64 %5, %6
  br i1 %.not12.i.i.i.i.i.i, label %.lr.ph.i.i.i.i.i.i, label %"_ZNSt6thread8_InvokerISt5tupleIJZN5vcpkg19execute_in_parallelIZNS2_17parallel_for_eachIRSt6vectorINS2_4PathESaIS6_EEZNS2_L26check_no_absolute_paths_inERKNS2_18ReadOnlyFilesystemERKS6_NS2_4SpanIS6_EERNS2_11MessageSinkEE3$_1EEvOT_T0_EUlmE_EEvmSK_EUlvE_EEEclEv.exit"

.lr.ph.i.i.i.i.i.i:                               ; preds = %1
  %7 = getelementptr inbounds i8, ptr %.val, i64 8
  br label %8

8:                                                ; preds = %8, %.lr.ph.i.i.i.i.i.i
  %9 = phi i64 [ %5, %.lr.ph.i.i.i.i.i.i ], [ %10, %8 ]
  %.val.i.i.i.i.i.i = load ptr, ptr %.val, align 8
  %.val11.i.i.i.i.i.i = load ptr, ptr %7, align 8
  %.val11.val.i.i.i.i.i.i = load ptr, ptr %.val11.i.i.i.i.i.i, align 8
  tail call fastcc void @"_ZZN5vcpkg17parallel_for_eachIRSt6vectorINS_4PathESaIS2_EEZNS_L26check_no_absolute_paths_inERKNS_18ReadOnlyFilesystemERKS2_NS_4SpanIS2_EERNS_11MessageSinkEE3$_1EEvOT_T0_ENKUlmE_clEm"(ptr %.val.i.i.i.i.i.i, ptr %.val11.val.i.i.i.i.i.i, i64 noundef %9)
  %10 = atomicrmw add ptr %3, i64 1 monotonic, align 8
  %11 = load i64, ptr %4, align 8
  %.not.i.i.i.i.i.i = icmp ult i64 %10, %11
  br i1 %.not.i.i.i.i.i.i, label %8, label %"_ZNSt6thread8_InvokerISt5tupleIJZN5vcpkg19execute_in_parallelIZNS2_17parallel_for_eachIRSt6vectorINS2_4PathESaIS6_EEZNS2_L26check_no_absolute_paths_inERKNS2_18ReadOnlyFilesystemERKS6_NS2_4SpanIS6_EERNS2_11MessageSinkEE3$_1EEvOT_T0_EUlmE_EEvmSK_EUlvE_EEEclEv.exit", !llvm.loop !196

"_ZNSt6thread8_InvokerISt5tupleIJZN5vcpkg19execute_in_parallelIZNS2_17parallel_for_eachIRSt6vectorINS2_4PathESaIS6_EEZNS2_L26check_no_absolute_paths_inERKNS2_18ReadOnlyFilesystemERKS6_NS2_4SpanIS6_EERNS2_11MessageSinkEE3$_1EEvOT_T0_EUlmE_EEvmSK_EUlvE_EEEclEv.exit": ; preds = %8, %1
  ret void
}